; Function Attrs: mustprogress nounwind uwtable
define hidden noundef ptr @_ZNK7SubNode12Value_commonEP11PhaseValues(ptr noundef nonnull align 8 dereferenceable(52) %0, ptr nocapture noundef readonly %1) local_unnamed_addr #0 align 2 {
  %3 = getelementptr inbounds i8, ptr %0, i64 8
  %4 = load ptr, ptr %3, align 8
  %5 = getelementptr inbounds i8, ptr %4, i64 8
  %6 = load ptr, ptr %5, align 8
  %7 = getelementptr inbounds i8, ptr %4, i64 16
  %8 = load ptr, ptr %7, align 8
  %9 = icmp eq ptr %6, %0
  br i1 %9, label %19, label %10

10:                                               ; preds = %2
  %11 = getelementptr inbounds i8, ptr %1, i64 40
  %12 = load ptr, ptr %11, align 8
  %13 = getelementptr inbounds i8, ptr %6, i64 40
  %14 = load i32, ptr %13, align 8
  %15 = getelementptr inbounds i8, ptr %12, i64 16
  %16 = load ptr, ptr %15, align 8
  %17 = zext i32 %14 to i64
  %18 = getelementptr inbounds ptr, ptr %16, i64 %17
  br label %19

19:                                               ; preds = %2, %10
  %.in = phi ptr [ %18, %10 ], [ @_ZN4Type3TOPE, %2 ]
  %20 = load ptr, ptr %.in, align 8
  %21 = load ptr, ptr @_ZN4Type3TOPE, align 8
  %22 = icmp eq ptr %20, %21
  %23 = icmp eq ptr %8, %0
  %or.cond21 = select i1 %22, i1 true, i1 %23
  br i1 %or.cond21, label %.thread, label %24

24:                                               ; preds = %19
  %25 = getelementptr inbounds i8, ptr %1, i64 40
  %26 = load ptr, ptr %25, align 8
  %27 = getelementptr inbounds i8, ptr %8, i64 40
  %28 = load i32, ptr %27, align 8
  %29 = getelementptr inbounds i8, ptr %26, i64 16
  %30 = load ptr, ptr %29, align 8
  %31 = zext i32 %28 to i64
  %32 = getelementptr inbounds ptr, ptr %30, i64 %31
  %33 = load ptr, ptr %32, align 8
  %34 = icmp eq ptr %33, %21
  br i1 %34, label %.thread, label %35

35:                                               ; preds = %24
  %36 = tail call noundef ptr @_ZNK4Node6uncastEb(ptr noundef nonnull align 8 dereferenceable(52) %6, i1 noundef zeroext false) #10
  %37 = tail call noundef ptr @_ZNK4Node6uncastEb(ptr noundef nonnull align 8 dereferenceable(52) %8, i1 noundef zeroext false) #10
  %38 = icmp eq ptr %36, %37
  br i1 %38, label %.thread.sink.split, label %39

39:                                               ; preds = %35
  %40 = load ptr, ptr @_ZN4Type6BOTTOME, align 8
  %41 = icmp eq ptr %20, %40
  %42 = icmp eq ptr %33, %40
  %or.cond = or i1 %41, %42
  br i1 %or.cond, label %.thread.sink.split, label %.thread

.thread.sink.split:                               ; preds = %39, %35
  %.sink23 = phi i64 [ 200, %35 ], [ 40, %39 ]
  %43 = load ptr, ptr %0, align 8
  %44 = getelementptr inbounds i8, ptr %43, i64 %.sink23
  %45 = load ptr, ptr %44, align 8
  %46 = tail call noundef ptr %45(ptr noundef nonnull align 8 dereferenceable(52) %0) #10
  br label %.thread

.thread:                                          ; preds = %.thread.sink.split, %39, %24, %19
  %.0 = phi ptr [ %21, %19 ], [ %21, %24 ], [ null, %39 ], [ %46, %.thread.sink.split ]
  ret ptr %.0
}